; Function Attrs: mustprogress uwtable
define internal fastcc void @_ZN11flatbuffersL14NumToStringCppENSt7__cxx1112basic_stringIcSt11char_traitsIcESaIcEEENS_8BaseTypeE(ptr noalias align 8 %agg.result, ptr noundef %val, i32 noundef %type) unnamed_addr #0 personality ptr @__gxx_personality_v0 {
entry:
  %ref.tmp = alloca %"class.std::allocator", align 1
  %ref.tmp11 = alloca %"class.std::allocator", align 1
  switch i32 %type, label %sw.default [
    i32 7, label %sw.bb
    i32 10, label %sw.bb4
    i32 9, label %sw.bb9
  ]

sw.bb:                                            ; preds = %entry
  %call.i.i = tail call noundef i32 @_ZNKSt7__cxx1112basic_stringIcSt11char_traitsIcESaIcEE7compareEPKc(ptr noundef nonnull align 8 dereferenceable(32) %val, ptr noundef nonnull @.str.229) #22
  %cmp.i.i.not = icmp eq i32 %call.i.i, 0
  br i1 %cmp.i.i.not, label %cond.false, label %cond.end.thread

cond.end.thread:                                  ; preds = %sw.bb
  tail call void @_ZNSt7__cxx1112basic_stringIcSt11char_traitsIcESaIcEEC1ERKS4_(ptr noundef nonnull align 8 dereferenceable(32) %agg.result, ptr noundef nonnull align 8 dereferenceable(32) %val)
  br label %return

cond.false:                                       ; preds = %sw.bb
  call void @_ZNSaIcEC1Ev(ptr noundef nonnull align 1 dereferenceable(1) %ref.tmp) #22
  %call.i3 = invoke noundef ptr @_ZNSt7__cxx1112basic_stringIcSt11char_traitsIcESaIcEE13_M_local_dataEv(ptr noundef nonnull align 8 dereferenceable(32) %agg.result)
          to label %call.i.noexc unwind label %lpad

call.i.noexc:                                     ; preds = %cond.false
  invoke void @_ZNSt7__cxx1112basic_stringIcSt11char_traitsIcESaIcEE12_Alloc_hiderC1EPcRKS3_(ptr noundef nonnull align 8 dereferenceable(8) %agg.result, ptr noundef %call.i3, ptr noundef nonnull align 1 dereferenceable(1) %ref.tmp)
          to label %.noexc unwind label %lpad

.noexc:                                           ; preds = %call.i.noexc
  invoke void @_ZNSt7__cxx1112basic_stringIcSt11char_traitsIcESaIcEE12_M_constructIPKcEEvT_S8_St20forward_iterator_tag(ptr noundef nonnull align 8 dereferenceable(32) %agg.result, ptr noundef nonnull @.str.230, ptr noundef nonnull getelementptr inbounds ([18 x i8], ptr @.str.230, i64 0, i64 17))
          to label %cleanup.action unwind label %lpad.i

lpad.i:                                           ; preds = %.noexc
  %0 = landingpad { ptr, i32 }
          cleanup
  call void @_ZNSaIcED2Ev(ptr noundef nonnull align 1 dereferenceable(1) %agg.result) #22
  br label %lpad.body

cleanup.action:                                   ; preds = %.noexc
  call void @_ZNSaIcED1Ev(ptr noundef nonnull align 1 dereferenceable(1) %ref.tmp) #22
  br label %return

lpad:                                             ; preds = %call.i.noexc, %cond.false
  %1 = landingpad { ptr, i32 }
          cleanup
  br label %lpad.body

lpad.body:                                        ; preds = %lpad.i, %lpad
  %eh.lpad-body = phi { ptr, i32 } [ %1, %lpad ], [ %0, %lpad.i ]
  call void @_ZNSaIcED1Ev(ptr noundef nonnull align 1 dereferenceable(1) %ref.tmp) #22
  br label %common.resume

sw.bb4:                                           ; preds = %entry
  %call.i = tail call noundef i32 @_ZNKSt7__cxx1112basic_stringIcSt11char_traitsIcESaIcEE7compareEPKc(ptr noundef nonnull align 8 dereferenceable(32) %val, ptr noundef nonnull @.str.209) #22
  %cmp.i = icmp eq i32 %call.i, 0
  tail call void @_ZNSt7__cxx1112basic_stringIcSt11char_traitsIcESaIcEEC1ERKS4_(ptr noundef nonnull align 8 dereferenceable(32) %agg.result, ptr noundef nonnull align 8 dereferenceable(32) %val)
  br i1 %cmp.i, label %return, label %cond.false7

cond.false7:                                      ; preds = %sw.bb4
  %call.i4 = invoke noundef nonnull align 8 dereferenceable(32) ptr @_ZNSt7__cxx1112basic_stringIcSt11char_traitsIcESaIcEE6appendEPKc(ptr noundef nonnull align 8 dereferenceable(32) %agg.result, ptr noundef nonnull @.str.231)
          to label %return unwind label %lpad.i5

common.resume:                                    ; preds = %lpad12.body, %lpad.body, %lpad.i19, %lpad.i5
  %common.resume.op = phi { ptr, i32 } [ %2, %lpad.i5 ], [ %5, %lpad.i19 ], [ %eh.lpad-body14, %lpad12.body ], [ %eh.lpad-body, %lpad.body ]
  resume { ptr, i32 } %common.resume.op

lpad.i5:                                          ; preds = %cond.false7
  %2 = landingpad { ptr, i32 }
          cleanup
  tail call void @_ZNSt7__cxx1112basic_stringIcSt11char_traitsIcESaIcEED1Ev(ptr noundef nonnull align 8 dereferenceable(32) %agg.result) #22
  br label %common.resume

sw.bb9:                                           ; preds = %entry
  %call.i6 = tail call noundef i32 @_ZNKSt7__cxx1112basic_stringIcSt11char_traitsIcESaIcEE7compareEPKc(ptr noundef nonnull align 8 dereferenceable(32) %val, ptr noundef nonnull @.str.232) #22
  %cmp.i7 = icmp eq i32 %call.i6, 0
  br i1 %cmp.i7, label %if.then, label %if.else

if.then:                                          ; preds = %sw.bb9
  call void @_ZNSaIcEC1Ev(ptr noundef nonnull align 1 dereferenceable(1) %ref.tmp11) #22
  %call.i812 = invoke noundef ptr @_ZNSt7__cxx1112basic_stringIcSt11char_traitsIcESaIcEE13_M_local_dataEv(ptr noundef nonnull align 8 dereferenceable(32) %agg.result)
          to label %call.i8.noexc unwind label %lpad12

call.i8.noexc:                                    ; preds = %if.then
  invoke void @_ZNSt7__cxx1112basic_stringIcSt11char_traitsIcESaIcEE12_Alloc_hiderC1EPcRKS3_(ptr noundef nonnull align 8 dereferenceable(8) %agg.result, ptr noundef %call.i812, ptr noundef nonnull align 1 dereferenceable(1) %ref.tmp11)
          to label %.noexc13 unwind label %lpad12

.noexc13:                                         ; preds = %call.i8.noexc
  invoke void @_ZNSt7__cxx1112basic_stringIcSt11char_traitsIcESaIcEE12_M_constructIPKcEEvT_S8_St20forward_iterator_tag(ptr noundef nonnull align 8 dereferenceable(32) %agg.result, ptr noundef nonnull @.str.233, ptr noundef nonnull getelementptr inbounds ([31 x i8], ptr @.str.233, i64 0, i64 30))
          to label %invoke.cont13 unwind label %lpad.i11

lpad.i11:                                         ; preds = %.noexc13
  %3 = landingpad { ptr, i32 }
          cleanup
  call void @_ZNSaIcED2Ev(ptr noundef nonnull align 1 dereferenceable(1) %agg.result) #22
  br label %lpad12.body

invoke.cont13:                                    ; preds = %.noexc13
  call void @_ZNSaIcED1Ev(ptr noundef nonnull align 1 dereferenceable(1) %ref.tmp11) #22
  br label %return

lpad12:                                           ; preds = %call.i8.noexc, %if.then
  %4 = landingpad { ptr, i32 }
          cleanup
  br label %lpad12.body

lpad12.body:                                      ; preds = %lpad.i11, %lpad12
  %eh.lpad-body14 = phi { ptr, i32 } [ %4, %lpad12 ], [ %3, %lpad.i11 ]
  call void @_ZNSaIcED1Ev(ptr noundef nonnull align 1 dereferenceable(1) %ref.tmp11) #22
  br label %common.resume

if.else:                                          ; preds = %sw.bb9
  %call.i16 = tail call noundef i32 @_ZNKSt7__cxx1112basic_stringIcSt11char_traitsIcESaIcEE7compareEPKc(ptr noundef nonnull align 8 dereferenceable(32) %val, ptr noundef nonnull @.str.209) #22
  %cmp.i17 = icmp eq i32 %call.i16, 0
  tail call void @_ZNSt7__cxx1112basic_stringIcSt11char_traitsIcESaIcEEC1ERKS4_(ptr noundef nonnull align 8 dereferenceable(32) %agg.result, ptr noundef nonnull align 8 dereferenceable(32) %val)
  br i1 %cmp.i17, label %return, label %cond.false16

cond.false16:                                     ; preds = %if.else
  %call.i18 = invoke noundef nonnull align 8 dereferenceable(32) ptr @_ZNSt7__cxx1112basic_stringIcSt11char_traitsIcESaIcEE6appendEPKc(ptr noundef nonnull align 8 dereferenceable(32) %agg.result, ptr noundef nonnull @.str.234)
          to label %return unwind label %lpad.i19

lpad.i19:                                         ; preds = %cond.false16
  %5 = landingpad { ptr, i32 }
          cleanup
  tail call void @_ZNSt7__cxx1112basic_stringIcSt11char_traitsIcESaIcEED1Ev(ptr noundef nonnull align 8 dereferenceable(32) %agg.result) #22
  br label %common.resume

sw.default:                                       ; preds = %entry
  tail call void @_ZNSt7__cxx1112basic_stringIcSt11char_traitsIcESaIcEEC1EOS4_(ptr noundef nonnull align 8 dereferenceable(32) %agg.result, ptr noundef nonnull align 8 dereferenceable(32) %val) #22
  br label %return

return:                                           ; preds = %if.else, %sw.bb4, %cond.false16, %cond.false7, %cond.end.thread, %cleanup.action, %sw.default, %invoke.cont13
  ret void
}